target datalayout = "e-m:e-p270:32:32-p271:32:32-p272:64:64-i64:64-i128:128-f80:128-n8:16:32:64-S128"
target triple = "x86_64-pc-linux-gnu"

; Function Attrs: inlinehint mustprogress nounwind uwtable
define internal noundef float @"_ZZZN19OpenColorIO_v2_5dev4ACES11RegisterAllERNS_28BuiltinTransformRegistryImplEENK3$_5clERNS_10OpRcPtrVecEENKUldE_clEd"(ptr noundef nonnull align 1 dereferenceable(1) %0, double noundef %1) #10 align 2 {
  %3 = alloca ptr, align 8
  %4 = alloca double, align 8
  %5 = alloca double, align 8
  %6 = alloca double, align 8
  store ptr %0, ptr %3, align 8, !tbaa !26
  store double %1, ptr %4, align 8, !tbaa !63
  call void @llvm.lifetime.start.p0(i64 8, ptr %5) #3
  %7 = load double, ptr %4, align 8, !tbaa !63
  %8 = call double @llvm.fmuladd.f64(double %7, double 0x3FFDC28F5C28F5C2, double -3.600000e-01)
  store double %8, ptr %5, align 8, !tbaa !63
  call void @llvm.lifetime.start.p0(i64 8, ptr %6) #3
  store double 0.000000e+00, ptr %6, align 8, !tbaa !63
  %9 = load double, ptr %5, align 8, !tbaa !63
  %10 = fcmp olt double %9, 0xBFD349A4D269349A
  br i1 %10, label %11, label %18

11:                                               ; preds = %2
  %12 = load double, ptr %5, align 8, !tbaa !63
  %13 = call double @llvm.fmuladd.f64(double %12, double 1.752000e+01, double -9.720000e+00)
  %14 = call double @pow(double noundef 2.000000e+00, double noundef %13) #3, !tbaa !75
  %15 = call double @pow(double noundef 2.000000e+00, double noundef -1.600000e+01) #3, !tbaa !75
  %16 = fsub double %14, %15
  %17 = fmul double %16, 2.000000e+00
  store double %17, ptr %6, align 8, !tbaa !63
  br label %22

18:                                               ; preds = %2
  %19 = load double, ptr %5, align 8, !tbaa !63
  %20 = call double @llvm.fmuladd.f64(double %19, double 1.752000e+01, double -9.720000e+00)
  %21 = call double @pow(double noundef 2.000000e+00, double noundef %20) #3, !tbaa !75
  store double %21, ptr %6, align 8, !tbaa !63
  br label %22

22:                                               ; preds = %18, %11
  %23 = load double, ptr %6, align 8, !tbaa !63
  %24 = fptrunc double %23 to float
  call void @llvm.lifetime.end.p0(i64 8, ptr %6) #3
  call void @llvm.lifetime.end.p0(i64 8, ptr %5) #3
  ret float %24
}

; Function Attrs: mustprogress nounwind uwtable
define linkonce_odr hidden noundef ptr @_ZNKSt9_Any_data9_M_accessEv(ptr noundef nonnull align 8 dereferenceable(16) %0) #6 comdat align 2 {
  %2 = alloca ptr, align 8
  store ptr %0, ptr %2, align 8, !tbaa !170
  %3 = load ptr, ptr %2, align 8
  %4 = getelementptr inbounds [16 x i8], ptr %3, i64 0, i64 0
  ret ptr %4
}

; Function Attrs: mustprogress uwtable
define internal noundef float @"_ZSt13__invoke_implIfRZZN19OpenColorIO_v2_5dev4ACES11RegisterAllERNS0_28BuiltinTransformRegistryImplEENK3$_5clERNS0_10OpRcPtrVecEEUldE_JdEET_St14__invoke_otherOT0_DpOT1_"(ptr noundef nonnull align 1 dereferenceable(1) %0, ptr noundef nonnull align 8 dereferenceable(8) %1) #4 {
  %3 = alloca ptr, align 8
  %4 = alloca ptr, align 8
  store ptr %0, ptr %3, align 8, !tbaa !26
  store ptr %1, ptr %4, align 8, !tbaa !79
  %5 = load ptr, ptr %3, align 8, !tbaa !26
  %6 = load ptr, ptr %4, align 8, !tbaa !79
  %7 = load double, ptr %6, align 8, !tbaa !63
  %8 = call noundef float @"_ZZZN19OpenColorIO_v2_5dev4ACES11RegisterAllERNS_28BuiltinTransformRegistryImplEENK3$_5clERNS_10OpRcPtrVecEENKUldE_clEd"(ptr noundef nonnull align 1 dereferenceable(1) %5, double noundef %7)
  ret float %8
}

; Function Attrs: mustprogress nounwind uwtable
define internal noundef nonnull align 1 dereferenceable(1) ptr @"_ZNKSt9_Any_data9_M_accessIZZN19OpenColorIO_v2_5dev4ACES11RegisterAllERNS1_28BuiltinTransformRegistryImplEENK3$_5clERNS1_10OpRcPtrVecEEUldE_EERKT_v"(ptr noundef nonnull align 8 dereferenceable(16) %0) #6 align 2 {
  %2 = alloca ptr, align 8
  store ptr %0, ptr %2, align 8, !tbaa !170
  %3 = load ptr, ptr %2, align 8
  %4 = call noundef ptr @_ZNKSt9_Any_data9_M_accessEv(ptr noundef nonnull align 8 dereferenceable(16) %3) #3
  ret ptr %4
}

; Function Attrs: mustprogress uwtable
define internal noundef float @"_ZSt10__invoke_rIfRZZN19OpenColorIO_v2_5dev4ACES11RegisterAllERNS0_28BuiltinTransformRegistryImplEENK3$_5clERNS0_10OpRcPtrVecEEUldE_JdEENSt9enable_ifIXsr6__and_ISt6__not_ISt7is_voidIT_EESt14is_convertibleINSt15__invoke_resultIT0_JDpT1_EE4typeESC_EEE5valueESC_E4typeEOSH_DpOSI_"(ptr noundef nonnull align 1 dereferenceable(1) %0, ptr noundef nonnull align 8 dereferenceable(8) %1) #4 {
  %3 = alloca ptr, align 8
  %4 = alloca ptr, align 8
  store ptr %0, ptr %3, align 8, !tbaa !26
  store ptr %1, ptr %4, align 8, !tbaa !79
  %5 = load ptr, ptr %3, align 8, !tbaa !26
  %6 = load ptr, ptr %4, align 8, !tbaa !79
  %7 = call noundef float @"_ZSt13__invoke_implIfRZZN19OpenColorIO_v2_5dev4ACES11RegisterAllERNS0_28BuiltinTransformRegistryImplEENK3$_5clERNS0_10OpRcPtrVecEEUldE_JdEET_St14__invoke_otherOT0_DpOT1_"(ptr noundef nonnull align 1 dereferenceable(1) %5, ptr noundef nonnull align 8 dereferenceable(8) %6)
  ret float %7
}

; Function Attrs: mustprogress nounwind uwtable
define internal noundef ptr @"_ZNSt14_Function_base13_Base_managerIZZN19OpenColorIO_v2_5dev4ACES11RegisterAllERNS1_28BuiltinTransformRegistryImplEENK3$_5clERNS1_10OpRcPtrVecEEUldE_E14_M_get_pointerERKSt9_Any_data"(ptr noundef nonnull align 8 dereferenceable(16) %0) #6 align 2 {
  %2 = alloca ptr, align 8
  %3 = alloca ptr, align 8
  store ptr %0, ptr %2, align 8, !tbaa !170
  call void @llvm.lifetime.start.p0(i64 8, ptr %3) #3
  %4 = load ptr, ptr %2, align 8, !tbaa !170
  %5 = call noundef nonnull align 1 dereferenceable(1) ptr @"_ZNKSt9_Any_data9_M_accessIZZN19OpenColorIO_v2_5dev4ACES11RegisterAllERNS1_28BuiltinTransformRegistryImplEENK3$_5clERNS1_10OpRcPtrVecEEUldE_EERKT_v"(ptr noundef nonnull align 8 dereferenceable(16) %4) #3
  store ptr %5, ptr %3, align 8, !tbaa !26
  %6 = load ptr, ptr %3, align 8, !tbaa !26
  call void @llvm.lifetime.end.p0(i64 8, ptr %3) #3
  ret ptr %6
}

; Function Attrs: mustprogress uwtable
define internal noundef float @"_ZNSt17_Function_handlerIFfdEZZN19OpenColorIO_v2_5dev4ACES11RegisterAllERNS1_28BuiltinTransformRegistryImplEENK3$_5clERNS1_10OpRcPtrVecEEUldE_E9_M_invokeERKSt9_Any_dataOd"(ptr noundef nonnull align 8 dereferenceable(16) %0, ptr noundef nonnull align 8 dereferenceable(8) %1) #4 align 2 {
  %3 = alloca ptr, align 8
  %4 = alloca ptr, align 8
  store ptr %0, ptr %3, align 8, !tbaa !170
  store ptr %1, ptr %4, align 8, !tbaa !79
  %5 = load ptr, ptr %3, align 8, !tbaa !170
  %6 = call noundef ptr @"_ZNSt14_Function_base13_Base_managerIZZN19OpenColorIO_v2_5dev4ACES11RegisterAllERNS1_28BuiltinTransformRegistryImplEENK3$_5clERNS1_10OpRcPtrVecEEUldE_E14_M_get_pointerERKSt9_Any_data"(ptr noundef nonnull align 8 dereferenceable(16) %5) #3
  %7 = load ptr, ptr %4, align 8, !tbaa !79
  %8 = call noundef float @"_ZSt10__invoke_rIfRZZN19OpenColorIO_v2_5dev4ACES11RegisterAllERNS0_28BuiltinTransformRegistryImplEENK3$_5clERNS0_10OpRcPtrVecEEUldE_JdEENSt9enable_ifIXsr6__and_ISt6__not_ISt7is_voidIT_EESt14is_convertibleINSt15__invoke_resultIT0_JDpT1_EE4typeESC_EEE5valueESC_E4typeEOSH_DpOSI_"(ptr noundef nonnull align 1 dereferenceable(1) %6, ptr noundef nonnull align 8 dereferenceable(8) %7)
  ret float %8
}