; Function Attrs: mustprogress nounwind uwtable
define internal noundef float @"_ZNSt17_Function_handlerIFfdEZZN19OpenColorIO_v2_5dev4ACES11RegisterAllERNS1_28BuiltinTransformRegistryImplEENK3$_5clERNS1_10OpRcPtrVecEEUldE_E9_M_invokeERKSt9_Any_dataOd"(ptr nonnull readnone align 8 captures(none) %0, ptr noundef nonnull readonly align 8 captures(none) dereferenceable(8) %1) #5 align 2 {
  %.val = load double, ptr %1, align 8, !tbaa !65
  %3 = tail call double @llvm.fmuladd.f64(double %.val, double 0x3FFDC28F5C28F5C2, double -3.600000e-01)
  %4 = fcmp olt double %3, 0xBFD349A4D269349A
  %5 = tail call double @llvm.fmuladd.f64(double %3, double 1.752000e+01, double -9.720000e+00)
  %exp26.i.i.i = tail call double @exp2(double %5) #23
  %6 = fadd double %exp26.i.i.i, 0xBEF0000000000000
  %7 = fmul double %6, 2.000000e+00
  %.0.i.i.i = select i1 %4, double %7, double %exp26.i.i.i
  %8 = fptrunc double %.0.i.i.i to float
  ret float %8
}